; ModuleID = '10/879.c'
source_filename = "10/879.c"
target datalayout = "e-m:e-p270:32:32-p271:32:32-p272:64:64-i64:64-f80:128-n8:16:32:64-S128"
target triple = "x86_64-pc-linux-gnu"

@.str = private unnamed_addr constant [3 x i8] c"%d\00", align 1

; Function Attrs: noinline nounwind uwtable
define dso_local i32 @main() #0 {
  %1 = alloca i32, align 4
  %2 = alloca i32, align 4
  %3 = alloca i32, align 4
  %4 = alloca [25 x i32], align 16
  %5 = alloca [25 x i32], align 16
  %6 = alloca [25 x i32], align 16
  %7 = alloca i32, align 4
  %8 = alloca i32, align 4
  store i32 0, i32* %1, align 4
  store i32 1, i32* %8, align 4
  %9 = call i32 (i8*, ...) @__isoc99_scanf(i8* getelementptr inbounds ([3 x i8], [3 x i8]* @.str, i64 0, i64 0), i32* %7)
  store i32 0, i32* %2, align 4
  br label %10

10:                                               ; preds = %19, %0
  %11 = load i32, i32* %2, align 4
  %12 = load i32, i32* %7, align 4
  %13 = icmp slt i32 %11, %12
  br i1 %13, label %14, label %22

14:                                               ; preds = %10
  %15 = load i32, i32* %2, align 4
  %16 = sext i32 %15 to i64
  %17 = getelementptr inbounds [25 x i32], [25 x i32]* %5, i64 0, i64 %16
  %18 = call i32 (i8*, ...) @__isoc99_scanf(i8* getelementptr inbounds ([3 x i8], [3 x i8]* @.str, i64 0, i64 0), i32* %17)
  br label %19

19:                                               ; preds = %14
  %20 = load i32, i32* %2, align 4
  %21 = add nsw i32 %20, 1
  store i32 %21, i32* %2, align 4
  br label %10

22:                                               ; preds = %10
  store i32 0, i32* %2, align 4
  br label %23

23:                                               ; preds = %31, %22
  %24 = load i32, i32* %2, align 4
  %25 = load i32, i32* %7, align 4
  %26 = icmp slt i32 %24, %25
  br i1 %26, label %27, label %34

27:                                               ; preds = %23
  %28 = load i32, i32* %2, align 4
  %29 = sext i32 %28 to i64
  %30 = getelementptr inbounds [25 x i32], [25 x i32]* %4, i64 0, i64 %29
  store i32 1, i32* %30, align 4
  br label %31

31:                                               ; preds = %27
  %32 = load i32, i32* %2, align 4
  %33 = add nsw i32 %32, 1
  store i32 %33, i32* %2, align 4
  br label %23

34:                                               ; preds = %23
  %35 = load i32, i32* %7, align 4
  %36 = sub nsw i32 %35, 1
  %37 = sext i32 %36 to i64
  %38 = getelementptr inbounds [25 x i32], [25 x i32]* %4, i64 0, i64 %37
  store i32 1, i32* %38, align 4
  %39 = load i32, i32* %7, align 4
  %40 = sub nsw i32 %39, 1
  store i32 %40, i32* %2, align 4
  br label %41

41:                                               ; preds = %84, %34
  %42 = load i32, i32* %2, align 4
  %43 = icmp sge i32 %42, 1
  br i1 %43, label %44, label %87

44:                                               ; preds = %41
  %45 = load i32, i32* %2, align 4
  %46 = sub nsw i32 %45, 1
  store i32 %46, i32* %3, align 4
  br label %47

47:                                               ; preds = %80, %44
  %48 = load i32, i32* %3, align 4
  %49 = icmp sge i32 %48, 0
  br i1 %49, label %50, label %83

50:                                               ; preds = %47
  %51 = load i32, i32* %2, align 4
  %52 = sext i32 %51 to i64
  %53 = getelementptr inbounds [25 x i32], [25 x i32]* %4, i64 0, i64 %52
  %54 = load i32, i32* %53, align 4
  %55 = load i32, i32* %3, align 4
  %56 = sext i32 %55 to i64
  %57 = getelementptr inbounds [25 x i32], [25 x i32]* %4, i64 0, i64 %56
  %58 = load i32, i32* %57, align 4
  %59 = icmp sge i32 %54, %58
  br i1 %59, label %60, label %79

60:                                               ; preds = %50
  %61 = load i32, i32* %3, align 4
  %62 = sext i32 %61 to i64
  %63 = getelementptr inbounds [25 x i32], [25 x i32]* %5, i64 0, i64 %62
  %64 = load i32, i32* %63, align 4
  %65 = load i32, i32* %2, align 4
  %66 = sext i32 %65 to i64
  %67 = getelementptr inbounds [25 x i32], [25 x i32]* %5, i64 0, i64 %66
  %68 = load i32, i32* %67, align 4
  %69 = icmp sge i32 %64, %68
  br i1 %69, label %70, label %79

70:                                               ; preds = %60
  %71 = load i32, i32* %2, align 4
  %72 = sext i32 %71 to i64
  %73 = getelementptr inbounds [25 x i32], [25 x i32]* %4, i64 0, i64 %72
  %74 = load i32, i32* %73, align 4
  %75 = add nsw i32 %74, 1
  %76 = load i32, i32* %3, align 4
  %77 = sext i32 %76 to i64
  %78 = getelementptr inbounds [25 x i32], [25 x i32]* %4, i64 0, i64 %77
  store i32 %75, i32* %78, align 4
  br label %79

79:                                               ; preds = %70, %60, %50
  br label %80

80:                                               ; preds = %79
  %81 = load i32, i32* %3, align 4
  %82 = add nsw i32 %81, -1
  store i32 %82, i32* %3, align 4
  br label %47

83:                                               ; preds = %47
  br label %84

84:                                               ; preds = %83
  %85 = load i32, i32* %2, align 4
  %86 = add nsw i32 %85, -1
  store i32 %86, i32* %2, align 4
  br label %41

87:                                               ; preds = %41
  store i32 0, i32* %2, align 4
  br label %88

88:                                               ; preds = %105, %87
  %89 = load i32, i32* %2, align 4
  %90 = load i32, i32* %7, align 4
  %91 = icmp slt i32 %89, %90
  br i1 %91, label %92, label %108

92:                                               ; preds = %88
  %93 = load i32, i32* %2, align 4
  %94 = sext i32 %93 to i64
  %95 = getelementptr inbounds [25 x i32], [25 x i32]* %4, i64 0, i64 %94
  %96 = load i32, i32* %95, align 4
  %97 = load i32, i32* %8, align 4
  %98 = icmp sgt i32 %96, %97
  br i1 %98, label %99, label %104

99:                                               ; preds = %92
  %100 = load i32, i32* %2, align 4
  %101 = sext i32 %100 to i64
  %102 = getelementptr inbounds [25 x i32], [25 x i32]* %4, i64 0, i64 %101
  %103 = load i32, i32* %102, align 4
  store i32 %103, i32* %8, align 4
  br label %104

104:                                              ; preds = %99, %92
  br label %105

105:                                              ; preds = %104
  %106 = load i32, i32* %2, align 4
  %107 = add nsw i32 %106, 1
  store i32 %107, i32* %2, align 4
  br label %88

108:                                              ; preds = %88
  %109 = load i32, i32* %8, align 4
  %110 = call i32 (i8*, ...) @printf(i8* getelementptr inbounds ([3 x i8], [3 x i8]* @.str, i64 0, i64 0), i32 %109)
  %111 = load i32, i32* %1, align 4
  ret i32 %111
}

declare dso_local i32 @__isoc99_scanf(i8*, ...) #1

declare dso_local i32 @printf(i8*, ...) #1


!llvm.module.flags = !{!0}
!llvm.ident = !{!1}

!0 = !{i32 1, !"wchar_size", i32 4}
!1 = !{!"clang version 10.0.0-4ubuntu1 "}
