; ModuleID = 'source-C-CXX/9/879.c'
source_filename = "source-C-CXX/9/879.c"
target datalayout = "e-m:e-p270:32:32-p271:32:32-p272:64:64-i64:64-f80:128-n8:16:32:64-S128"
target triple = "x86_64-pc-linux-gnu"

@.str = private unnamed_addr constant [3 x i8] c"%d\00", align 1

; Function Attrs: nofree nounwind sspstrong uwtable
define dso_local i32 @main() local_unnamed_addr #0 {
  %1 = alloca [25 x i32], align 16
  %2 = alloca [25 x i32], align 16
  %3 = alloca i32, align 4
  %4 = bitcast [25 x i32]* %1 to i8*
  call void @llvm.lifetime.start.p0i8(i64 100, i8* nonnull %4) #4
  %5 = bitcast [25 x i32]* %2 to i8*
  call void @llvm.lifetime.start.p0i8(i64 100, i8* nonnull %5) #4
  %6 = bitcast i32* %3 to i8*
  call void @llvm.lifetime.start.p0i8(i64 4, i8* nonnull %6) #4
  %7 = call i32 (i8*, ...) @__isoc99_scanf(i8* getelementptr inbounds ([3 x i8], [3 x i8]* @.str, i64 0, i64 0), i32* nonnull %3)
  %8 = load i32, i32* %3, align 4, !tbaa !5
  %9 = icmp sgt i32 %8, 0
  br i1 %9, label %86, label %213

10:                                               ; preds = %86
  %11 = icmp sgt i32 %91, 0
  br i1 %11, label %12, label %213

12:                                               ; preds = %10
  %13 = zext i32 %91 to i64
  %14 = icmp ult i32 %91, 8
  br i1 %14, label %84, label %15

15:                                               ; preds = %12
  %16 = and i64 %13, 4294967288
  %17 = add nsw i64 %16, -8
  %18 = lshr exact i64 %17, 3
  %19 = add nuw nsw i64 %18, 1
  %20 = and i64 %19, 7
  %21 = icmp ult i64 %17, 56
  br i1 %21, label %69, label %22

22:                                               ; preds = %15
  %23 = and i64 %19, 4611686018427387896
  br label %24

24:                                               ; preds = %24, %22
  %25 = phi i64 [ 0, %22 ], [ %66, %24 ]
  %26 = phi i64 [ %23, %22 ], [ %67, %24 ]
  %27 = getelementptr inbounds [25 x i32], [25 x i32]* %1, i64 0, i64 %25
  %28 = bitcast i32* %27 to <4 x i32>*
  store <4 x i32> <i32 1, i32 1, i32 1, i32 1>, <4 x i32>* %28, align 16, !tbaa !5
  %29 = getelementptr inbounds i32, i32* %27, i64 4
  %30 = bitcast i32* %29 to <4 x i32>*
  store <4 x i32> <i32 1, i32 1, i32 1, i32 1>, <4 x i32>* %30, align 16, !tbaa !5
  %31 = or i64 %25, 8
  %32 = getelementptr inbounds [25 x i32], [25 x i32]* %1, i64 0, i64 %31
  %33 = bitcast i32* %32 to <4 x i32>*
  store <4 x i32> <i32 1, i32 1, i32 1, i32 1>, <4 x i32>* %33, align 16, !tbaa !5
  %34 = getelementptr inbounds i32, i32* %32, i64 4
  %35 = bitcast i32* %34 to <4 x i32>*
  store <4 x i32> <i32 1, i32 1, i32 1, i32 1>, <4 x i32>* %35, align 16, !tbaa !5
  %36 = or i64 %25, 16
  %37 = getelementptr inbounds [25 x i32], [25 x i32]* %1, i64 0, i64 %36
  %38 = bitcast i32* %37 to <4 x i32>*
  store <4 x i32> <i32 1, i32 1, i32 1, i32 1>, <4 x i32>* %38, align 16, !tbaa !5
  %39 = getelementptr inbounds i32, i32* %37, i64 4
  %40 = bitcast i32* %39 to <4 x i32>*
  store <4 x i32> <i32 1, i32 1, i32 1, i32 1>, <4 x i32>* %40, align 16, !tbaa !5
  %41 = or i64 %25, 24
  %42 = getelementptr inbounds [25 x i32], [25 x i32]* %1, i64 0, i64 %41
  %43 = bitcast i32* %42 to <4 x i32>*
  store <4 x i32> <i32 1, i32 1, i32 1, i32 1>, <4 x i32>* %43, align 16, !tbaa !5
  %44 = getelementptr inbounds i32, i32* %42, i64 4
  %45 = bitcast i32* %44 to <4 x i32>*
  store <4 x i32> <i32 1, i32 1, i32 1, i32 1>, <4 x i32>* %45, align 16, !tbaa !5
  %46 = or i64 %25, 32
  %47 = getelementptr inbounds [25 x i32], [25 x i32]* %1, i64 0, i64 %46
  %48 = bitcast i32* %47 to <4 x i32>*
  store <4 x i32> <i32 1, i32 1, i32 1, i32 1>, <4 x i32>* %48, align 16, !tbaa !5
  %49 = getelementptr inbounds i32, i32* %47, i64 4
  %50 = bitcast i32* %49 to <4 x i32>*
  store <4 x i32> <i32 1, i32 1, i32 1, i32 1>, <4 x i32>* %50, align 16, !tbaa !5
  %51 = or i64 %25, 40
  %52 = getelementptr inbounds [25 x i32], [25 x i32]* %1, i64 0, i64 %51
  %53 = bitcast i32* %52 to <4 x i32>*
  store <4 x i32> <i32 1, i32 1, i32 1, i32 1>, <4 x i32>* %53, align 16, !tbaa !5
  %54 = getelementptr inbounds i32, i32* %52, i64 4
  %55 = bitcast i32* %54 to <4 x i32>*
  store <4 x i32> <i32 1, i32 1, i32 1, i32 1>, <4 x i32>* %55, align 16, !tbaa !5
  %56 = or i64 %25, 48
  %57 = getelementptr inbounds [25 x i32], [25 x i32]* %1, i64 0, i64 %56
  %58 = bitcast i32* %57 to <4 x i32>*
  store <4 x i32> <i32 1, i32 1, i32 1, i32 1>, <4 x i32>* %58, align 16, !tbaa !5
  %59 = getelementptr inbounds i32, i32* %57, i64 4
  %60 = bitcast i32* %59 to <4 x i32>*
  store <4 x i32> <i32 1, i32 1, i32 1, i32 1>, <4 x i32>* %60, align 16, !tbaa !5
  %61 = or i64 %25, 56
  %62 = getelementptr inbounds [25 x i32], [25 x i32]* %1, i64 0, i64 %61
  %63 = bitcast i32* %62 to <4 x i32>*
  store <4 x i32> <i32 1, i32 1, i32 1, i32 1>, <4 x i32>* %63, align 16, !tbaa !5
  %64 = getelementptr inbounds i32, i32* %62, i64 4
  %65 = bitcast i32* %64 to <4 x i32>*
  store <4 x i32> <i32 1, i32 1, i32 1, i32 1>, <4 x i32>* %65, align 16, !tbaa !5
  %66 = add nuw i64 %25, 64
  %67 = add i64 %26, -8
  %68 = icmp eq i64 %67, 0
  br i1 %68, label %69, label %24, !llvm.loop !9

69:                                               ; preds = %24, %15
  %70 = phi i64 [ 0, %15 ], [ %66, %24 ]
  %71 = icmp eq i64 %20, 0
  br i1 %71, label %82, label %72

72:                                               ; preds = %69, %72
  %73 = phi i64 [ %79, %72 ], [ %70, %69 ]
  %74 = phi i64 [ %80, %72 ], [ %20, %69 ]
  %75 = getelementptr inbounds [25 x i32], [25 x i32]* %1, i64 0, i64 %73
  %76 = bitcast i32* %75 to <4 x i32>*
  store <4 x i32> <i32 1, i32 1, i32 1, i32 1>, <4 x i32>* %76, align 16, !tbaa !5
  %77 = getelementptr inbounds i32, i32* %75, i64 4
  %78 = bitcast i32* %77 to <4 x i32>*
  store <4 x i32> <i32 1, i32 1, i32 1, i32 1>, <4 x i32>* %78, align 16, !tbaa !5
  %79 = add nuw i64 %73, 8
  %80 = add i64 %74, -1
  %81 = icmp eq i64 %80, 0
  br i1 %81, label %82, label %72, !llvm.loop !12

82:                                               ; preds = %72, %69
  %83 = icmp eq i64 %16, %13
  br i1 %83, label %99, label %84

84:                                               ; preds = %12, %82
  %85 = phi i64 [ 0, %12 ], [ %16, %82 ]
  br label %94

86:                                               ; preds = %0, %86
  %87 = phi i64 [ %90, %86 ], [ 0, %0 ]
  %88 = getelementptr inbounds [25 x i32], [25 x i32]* %2, i64 0, i64 %87
  %89 = call i32 (i8*, ...) @__isoc99_scanf(i8* getelementptr inbounds ([3 x i8], [3 x i8]* @.str, i64 0, i64 0), i32* nonnull %88)
  %90 = add nuw nsw i64 %87, 1
  %91 = load i32, i32* %3, align 4, !tbaa !5
  %92 = sext i32 %91 to i64
  %93 = icmp slt i64 %90, %92
  br i1 %93, label %86, label %10, !llvm.loop !14

94:                                               ; preds = %84, %94
  %95 = phi i64 [ %97, %94 ], [ %85, %84 ]
  %96 = getelementptr inbounds [25 x i32], [25 x i32]* %1, i64 0, i64 %95
  store i32 1, i32* %96, align 4, !tbaa !5
  %97 = add nuw nsw i64 %95, 1
  %98 = icmp eq i64 %97, %13
  br i1 %98, label %99, label %94, !llvm.loop !15

99:                                               ; preds = %94, %82
  %100 = add nsw i32 %91, -1
  %101 = sext i32 %100 to i64
  %102 = getelementptr inbounds [25 x i32], [25 x i32]* %1, i64 0, i64 %101
  store i32 1, i32* %102, align 4, !tbaa !5
  %103 = icmp sgt i32 %91, 1
  br i1 %103, label %104, label %111

104:                                              ; preds = %99
  %105 = add nsw i32 %91, -2
  %106 = zext i32 %105 to i64
  %107 = zext i32 %91 to i64
  br label %181

108:                                              ; preds = %200
  %109 = icmp sgt i64 %182, 2
  %110 = add nsw i64 %183, -1
  br i1 %109, label %181, label %111, !llvm.loop !17

111:                                              ; preds = %108, %99
  br i1 %11, label %112, label %218

112:                                              ; preds = %111
  %113 = zext i32 %91 to i64
  %114 = icmp ult i32 %91, 8
  br i1 %114, label %178, label %115

115:                                              ; preds = %112
  %116 = and i64 %13, 4294967288
  %117 = add nsw i64 %116, -8
  %118 = lshr exact i64 %117, 3
  %119 = add nuw nsw i64 %118, 1
  %120 = and i64 %119, 1
  %121 = icmp eq i64 %117, 0
  br i1 %121, label %153, label %122

122:                                              ; preds = %115
  %123 = and i64 %119, 4611686018427387902
  br label %124

124:                                              ; preds = %124, %122
  %125 = phi i64 [ 0, %122 ], [ %150, %124 ]
  %126 = phi <4 x i32> [ <i32 1, i32 1, i32 1, i32 1>, %122 ], [ %148, %124 ]
  %127 = phi <4 x i32> [ <i32 1, i32 1, i32 1, i32 1>, %122 ], [ %149, %124 ]
  %128 = phi i64 [ %123, %122 ], [ %151, %124 ]
  %129 = getelementptr inbounds [25 x i32], [25 x i32]* %1, i64 0, i64 %125
  %130 = bitcast i32* %129 to <4 x i32>*
  %131 = load <4 x i32>, <4 x i32>* %130, align 16, !tbaa !5
  %132 = getelementptr inbounds i32, i32* %129, i64 4
  %133 = bitcast i32* %132 to <4 x i32>*
  %134 = load <4 x i32>, <4 x i32>* %133, align 16, !tbaa !5
  %135 = icmp sgt <4 x i32> %131, %126
  %136 = icmp sgt <4 x i32> %134, %127
  %137 = select <4 x i1> %135, <4 x i32> %131, <4 x i32> %126
  %138 = select <4 x i1> %136, <4 x i32> %134, <4 x i32> %127
  %139 = or i64 %125, 8
  %140 = getelementptr inbounds [25 x i32], [25 x i32]* %1, i64 0, i64 %139
  %141 = bitcast i32* %140 to <4 x i32>*
  %142 = load <4 x i32>, <4 x i32>* %141, align 16, !tbaa !5
  %143 = getelementptr inbounds i32, i32* %140, i64 4
  %144 = bitcast i32* %143 to <4 x i32>*
  %145 = load <4 x i32>, <4 x i32>* %144, align 16, !tbaa !5
  %146 = icmp sgt <4 x i32> %142, %137
  %147 = icmp sgt <4 x i32> %145, %138
  %148 = select <4 x i1> %146, <4 x i32> %142, <4 x i32> %137
  %149 = select <4 x i1> %147, <4 x i32> %145, <4 x i32> %138
  %150 = add nuw i64 %125, 16
  %151 = add i64 %128, -2
  %152 = icmp eq i64 %151, 0
  br i1 %152, label %153, label %124, !llvm.loop !18

153:                                              ; preds = %124, %115
  %154 = phi <4 x i32> [ undef, %115 ], [ %148, %124 ]
  %155 = phi <4 x i32> [ undef, %115 ], [ %149, %124 ]
  %156 = phi i64 [ 0, %115 ], [ %150, %124 ]
  %157 = phi <4 x i32> [ <i32 1, i32 1, i32 1, i32 1>, %115 ], [ %148, %124 ]
  %158 = phi <4 x i32> [ <i32 1, i32 1, i32 1, i32 1>, %115 ], [ %149, %124 ]
  %159 = icmp eq i64 %120, 0
  br i1 %159, label %171, label %160

160:                                              ; preds = %153
  %161 = getelementptr inbounds [25 x i32], [25 x i32]* %1, i64 0, i64 %156
  %162 = bitcast i32* %161 to <4 x i32>*
  %163 = load <4 x i32>, <4 x i32>* %162, align 16, !tbaa !5
  %164 = getelementptr inbounds i32, i32* %161, i64 4
  %165 = bitcast i32* %164 to <4 x i32>*
  %166 = load <4 x i32>, <4 x i32>* %165, align 16, !tbaa !5
  %167 = icmp sgt <4 x i32> %166, %158
  %168 = select <4 x i1> %167, <4 x i32> %166, <4 x i32> %158
  %169 = icmp sgt <4 x i32> %163, %157
  %170 = select <4 x i1> %169, <4 x i32> %163, <4 x i32> %157
  br label %171

171:                                              ; preds = %153, %160
  %172 = phi <4 x i32> [ %154, %153 ], [ %170, %160 ]
  %173 = phi <4 x i32> [ %155, %153 ], [ %168, %160 ]
  %174 = icmp sgt <4 x i32> %172, %173
  %175 = select <4 x i1> %174, <4 x i32> %172, <4 x i32> %173
  %176 = call i32 @llvm.vector.reduce.smax.v4i32(<4 x i32> %175)
  %177 = icmp eq i64 %116, %13
  br i1 %177, label %218, label %178

178:                                              ; preds = %112, %171
  %179 = phi i64 [ 0, %112 ], [ %116, %171 ]
  %180 = phi i32 [ 1, %112 ], [ %176, %171 ]
  br label %204

181:                                              ; preds = %108, %104
  %182 = phi i64 [ %107, %104 ], [ %184, %108 ]
  %183 = phi i64 [ %106, %104 ], [ %110, %108 ]
  %184 = add nsw i64 %182, -1
  %185 = getelementptr inbounds [25 x i32], [25 x i32]* %1, i64 0, i64 %184
  %186 = getelementptr inbounds [25 x i32], [25 x i32]* %2, i64 0, i64 %184
  br label %187

187:                                              ; preds = %181, %200
  %188 = phi i64 [ %183, %181 ], [ %203, %200 ]
  %189 = load i32, i32* %185, align 4, !tbaa !5
  %190 = getelementptr inbounds [25 x i32], [25 x i32]* %1, i64 0, i64 %188
  %191 = load i32, i32* %190, align 4, !tbaa !5
  %192 = icmp slt i32 %189, %191
  br i1 %192, label %200, label %193

193:                                              ; preds = %187
  %194 = getelementptr inbounds [25 x i32], [25 x i32]* %2, i64 0, i64 %188
  %195 = load i32, i32* %194, align 4, !tbaa !5
  %196 = load i32, i32* %186, align 4, !tbaa !5
  %197 = icmp slt i32 %195, %196
  br i1 %197, label %200, label %198

198:                                              ; preds = %193
  %199 = add nsw i32 %189, 1
  store i32 %199, i32* %190, align 4, !tbaa !5
  br label %200

200:                                              ; preds = %187, %193, %198
  %201 = trunc i64 %188 to i32
  %202 = icmp sgt i32 %201, 0
  %203 = add nsw i64 %188, -1
  br i1 %202, label %187, label %108, !llvm.loop !19

204:                                              ; preds = %178, %204
  %205 = phi i64 [ %211, %204 ], [ %179, %178 ]
  %206 = phi i32 [ %210, %204 ], [ %180, %178 ]
  %207 = getelementptr inbounds [25 x i32], [25 x i32]* %1, i64 0, i64 %205
  %208 = load i32, i32* %207, align 4, !tbaa !5
  %209 = icmp sgt i32 %208, %206
  %210 = select i1 %209, i32 %208, i32 %206
  %211 = add nuw nsw i64 %205, 1
  %212 = icmp eq i64 %211, %113
  br i1 %212, label %218, label %204, !llvm.loop !20

213:                                              ; preds = %0, %10
  %214 = phi i32 [ %91, %10 ], [ %8, %0 ]
  %215 = add nsw i32 %214, -1
  %216 = sext i32 %215 to i64
  %217 = getelementptr inbounds [25 x i32], [25 x i32]* %1, i64 0, i64 %216
  store i32 1, i32* %217, align 4, !tbaa !5
  br label %218

218:                                              ; preds = %204, %171, %213, %111
  %219 = phi i32 [ 1, %111 ], [ 1, %213 ], [ %176, %171 ], [ %210, %204 ]
  %220 = call i32 (i8*, ...) @printf(i8* nonnull dereferenceable(1) getelementptr inbounds ([3 x i8], [3 x i8]* @.str, i64 0, i64 0), i32 %219)
  call void @llvm.lifetime.end.p0i8(i64 4, i8* nonnull %6) #4
  call void @llvm.lifetime.end.p0i8(i64 100, i8* nonnull %5) #4
  call void @llvm.lifetime.end.p0i8(i64 100, i8* nonnull %4) #4
  ret i32 0
}

; Function Attrs: argmemonly mustprogress nofree nosync nounwind willreturn
declare void @llvm.lifetime.start.p0i8(i64 immarg, i8* nocapture) #1

; Function Attrs: nofree nounwind
declare noundef i32 @__isoc99_scanf(i8* nocapture noundef readonly, ...) local_unnamed_addr #2

; Function Attrs: nofree nounwind
declare noundef i32 @printf(i8* nocapture noundef readonly, ...) local_unnamed_addr #2

; Function Attrs: argmemonly mustprogress nofree nosync nounwind willreturn
declare void @llvm.lifetime.end.p0i8(i64 immarg, i8* nocapture) #1

; Function Attrs: nofree nosync nounwind readnone willreturn
declare i32 @llvm.vector.reduce.smax.v4i32(<4 x i32>) #3


!llvm.module.flags = !{!0, !1, !2, !3}
!llvm.ident = !{!4}

!0 = !{i32 1, !"wchar_size", i32 4}
!1 = !{i32 7, !"PIC Level", i32 2}
!2 = !{i32 7, !"PIE Level", i32 2}
!3 = !{i32 7, !"uwtable", i32 1}
!4 = !{!"clang version 13.0.0"}
!5 = !{!6, !6, i64 0}
!6 = !{!"int", !7, i64 0}
!7 = !{!"omnipotent char", !8, i64 0}
!8 = !{!"Simple C/C++ TBAA"}
!9 = distinct !{!9, !10, !11}
!10 = !{!"llvm.loop.mustprogress"}
!11 = !{!"llvm.loop.isvectorized", i32 1}
!12 = distinct !{!12, !13}
!13 = !{!"llvm.loop.unroll.disable"}
!14 = distinct !{!14, !10}
!15 = distinct !{!15, !10, !16, !11}
!16 = !{!"llvm.loop.unroll.runtime.disable"}
!17 = distinct !{!17, !10}
!18 = distinct !{!18, !10, !11}
!19 = distinct !{!19, !10}
!20 = distinct !{!20, !10, !16, !11}
